target datalayout = "e-m:e-p270:32:32-p271:32:32-p272:64:64-i64:64-i128:128-f80:128-n8:16:32:64-S128"
target triple = "x86_64-pc-linux-gnu"

; Function Attrs: nounwind uwtable
define void @Abc_NtkInterFast(ptr noundef %0, ptr noundef %1, i32 noundef %2) #0 {
  %4 = alloca ptr, align 8
  %5 = alloca ptr, align 8
  %6 = alloca i32, align 4
  %7 = alloca ptr, align 8
  %8 = alloca ptr, align 8
  store ptr %0, ptr %4, align 8
  store ptr %1, ptr %5, align 8
  store i32 %2, ptr %6, align 4
  %9 = load ptr, ptr %4, align 8
  %10 = call ptr @Abc_NtkToDar(ptr noundef %9, i32 noundef 0, i32 noundef 0)
  store ptr %10, ptr %7, align 8
  %11 = load ptr, ptr %7, align 8
  %12 = icmp eq ptr %11, null
  br i1 %12, label %13, label %14

13:                                               ; preds = %3
  br label %26

14:                                               ; preds = %3
  %15 = load ptr, ptr %5, align 8
  %16 = call ptr @Abc_NtkToDar(ptr noundef %15, i32 noundef 0, i32 noundef 0)
  store ptr %16, ptr %8, align 8
  %17 = load ptr, ptr %8, align 8
  %18 = icmp eq ptr %17, null
  br i1 %18, label %19, label %20

19:                                               ; preds = %14
  br label %26

20:                                               ; preds = %14
  %21 = load ptr, ptr %7, align 8
  %22 = load ptr, ptr %8, align 8
  %23 = load i32, ptr %6, align 4
  call void @Aig_ManInterFast(ptr noundef %21, ptr noundef %22, i32 noundef %23)
  %24 = load ptr, ptr %7, align 8
  call void @Aig_ManStop(ptr noundef %24)
  %25 = load ptr, ptr %8, align 8
  call void @Aig_ManStop(ptr noundef %25)
  br label %26

26:                                               ; preds = %20, %19, %13
  ret void
}