; Function Attrs: nounwind uwtable
define void @Abc_NtkInterFast(ptr noundef %0, ptr noundef %1, i32 noundef %2) local_unnamed_addr #1 {
  %4 = tail call ptr @Abc_NtkToDar(ptr noundef %0, i32 noundef 0, i32 noundef 0)
  %5 = icmp eq ptr %4, null
  br i1 %5, label %10, label %6

6:                                                ; preds = %3
  %7 = tail call ptr @Abc_NtkToDar(ptr noundef %1, i32 noundef 0, i32 noundef 0)
  %8 = icmp eq ptr %7, null
  br i1 %8, label %10, label %9

9:                                                ; preds = %6
  tail call void @Aig_ManInterFast(ptr noundef nonnull %4, ptr noundef nonnull %7, i32 noundef %2) #19
  tail call void @Aig_ManStop(ptr noundef nonnull %4) #19
  tail call void @Aig_ManStop(ptr noundef nonnull %7) #19
  br label %10

10:                                               ; preds = %6, %3, %9
  ret void
}